ARM GAS  /var/folders/f_/cbwjhbrs2jjg59qn23y6nhvm0000gn/T//ccc3mDts.s 			page 1


   1              		.cpu cortex-m7
   2              		.eabi_attribute 27, 1	@ Tag_ABI_HardFP_use
   3              		.eabi_attribute 28, 1	@ Tag_ABI_VFP_args
   4              		.eabi_attribute 20, 1	@ Tag_ABI_FP_denormal
   5              		.eabi_attribute 21, 1	@ Tag_ABI_FP_exceptions
   6              		.eabi_attribute 23, 3	@ Tag_ABI_FP_number_model
   7              		.eabi_attribute 24, 1	@ Tag_ABI_align8_needed
   8              		.eabi_attribute 25, 1	@ Tag_ABI_align8_preserved
   9              		.eabi_attribute 26, 1	@ Tag_ABI_enum_size
  10              		.eabi_attribute 30, 2	@ Tag_ABI_optimization_goals
  11              		.eabi_attribute 34, 1	@ Tag_CPU_unaligned_access
  12              		.eabi_attribute 18, 4	@ Tag_ABI_PCS_wchar_t
  13              		.file	"main.c"
  14              	@ GNU C17 (GNU Tools for Arm Embedded Processors 9-2019-q4-major) version 9.2.1 20191025 (release) 
  15              	@	compiled by GNU C version 4.2.1 Compatible Apple LLVM 9.0.0 (clang-900.0.39.2), GMP version 6.1.0
  16              	
  17              	@ GGC heuristics: --param ggc-min-expand=100 --param ggc-min-heapsize=131072
  18              	@ options passed:  -I . -I . -I /Users/kubukoz/Developer/PlaydateSDK/C_API
  19              	@ -imultilib thumb/v7e-m+fp/hard
  20              	@ -iprefix /usr/local/playdate/gcc-arm-none-eabi-9-2019-q4-major/bin/../lib/gcc/arm-none-eabi/9.2.1
  21              	@ -isysroot /usr/local/playdate/gcc-arm-none-eabi-9-2019-q4-major/bin/../arm-none-eabi
  22              	@ -MD build/src/main.d -MF build/dep/main.o.d -MP -MQ build/src/main.o
  23              	@ -D__USES_INITFINI__ -D __FPU_USED=1 -D TARGET_PLAYDATE=1
  24              	@ -D TARGET_EXTENSION=1 src/main.c -mthumb -mcpu=cortex-m7 -mfloat-abi=hard
  25              	@ -mfpu=fpv5-sp-d16 -mword-relocations -march=armv7e-m+fpv5
  26              	@ -auxbase-strip build/src/main.o -g3 -gdwarf-2 -O2 -Wall -Wno-unused
  27              	@ -Wstrict-prototypes -Wno-unknown-pragmas -Wdouble-promotion
  28              	@ -falign-functions=16 -fomit-frame-pointer -fverbose-asm -fno-common
  29              	@ -ffunction-sections -fdata-sections
  30              	@ options enabled:  -faggressive-loop-optimizations -falign-functions
  31              	@ -falign-jumps -falign-labels -falign-loops -fassume-phsa -fauto-inc-dec
  32              	@ -fbranch-count-reg -fcaller-saves -fcombine-stack-adjustments
  33              	@ -fcompare-elim -fcprop-registers -fcrossjumping -fcse-follow-jumps
  34              	@ -fdata-sections -fdefer-pop -fdelete-null-pointer-checks -fdevirtualize
  35              	@ -fdevirtualize-speculatively -fdwarf2-cfi-asm -fearly-inlining
  36              	@ -feliminate-unused-debug-types -fexpensive-optimizations
  37              	@ -fforward-propagate -ffp-int-builtin-inexact -ffunction-cse
  38              	@ -ffunction-sections -fgcse -fgcse-lm -fgnu-runtime -fgnu-unique
  39              	@ -fguess-branch-probability -fhoist-adjacent-loads -fident -fif-conversion
  40              	@ -fif-conversion2 -findirect-inlining -finline -finline-atomics
  41              	@ -finline-functions-called-once -finline-small-functions -fipa-bit-cp
  42              	@ -fipa-cp -fipa-icf -fipa-icf-functions -fipa-icf-variables -fipa-profile
  43              	@ -fipa-pure-const -fipa-ra -fipa-reference -fipa-reference-addressable
  44              	@ -fipa-sra -fipa-stack-alignment -fipa-vrp -fira-hoist-pressure
  45              	@ -fira-share-save-slots -fira-share-spill-slots
  46              	@ -fisolate-erroneous-paths-dereference -fivopts -fkeep-static-consts
  47              	@ -fleading-underscore -flifetime-dse -flra-remat -flto-odr-type-merging
  48              	@ -fmath-errno -fmerge-constants -fmerge-debug-strings
  49              	@ -fmove-loop-invariants -fomit-frame-pointer -foptimize-sibling-calls
  50              	@ -foptimize-strlen -fpartial-inlining -fpeephole -fpeephole2 -fplt
  51              	@ -fprefetch-loop-arrays -freg-struct-return -freorder-blocks
  52              	@ -freorder-functions -frerun-cse-after-loop
  53              	@ -fsched-critical-path-heuristic -fsched-dep-count-heuristic
  54              	@ -fsched-group-heuristic -fsched-interblock -fsched-last-insn-heuristic
  55              	@ -fsched-pressure -fsched-rank-heuristic -fsched-spec
  56              	@ -fsched-spec-insn-heuristic -fsched-stalled-insns-dep -fschedule-insns
  57              	@ -fschedule-insns2 -fsection-anchors -fsemantic-interposition
ARM GAS  /var/folders/f_/cbwjhbrs2jjg59qn23y6nhvm0000gn/T//ccc3mDts.s 			page 2


  58              	@ -fshow-column -fshrink-wrap -fshrink-wrap-separate -fsigned-zeros
  59              	@ -fsplit-ivs-in-unroller -fsplit-wide-types -fssa-backprop -fssa-phiopt
  60              	@ -fstdarg-opt -fstore-merging -fstrict-aliasing
  61              	@ -fstrict-volatile-bitfields -fsync-libcalls -fthread-jumps
  62              	@ -ftoplevel-reorder -ftrapping-math -ftree-bit-ccp -ftree-builtin-call-dce
  63              	@ -ftree-ccp -ftree-ch -ftree-coalesce-vars -ftree-copy-prop -ftree-cselim
  64              	@ -ftree-dce -ftree-dominator-opts -ftree-dse -ftree-forwprop -ftree-fre
  65              	@ -ftree-loop-if-convert -ftree-loop-im -ftree-loop-ivcanon
  66              	@ -ftree-loop-optimize -ftree-parallelize-loops= -ftree-phiprop -ftree-pre
  67              	@ -ftree-pta -ftree-reassoc -ftree-scev-cprop -ftree-sink -ftree-slsr
  68              	@ -ftree-sra -ftree-switch-conversion -ftree-tail-merge -ftree-ter
  69              	@ -ftree-vrp -funit-at-a-time -fvar-tracking -fvar-tracking-assignments
  70              	@ -fverbose-asm -fzero-initialized-in-bss -masm-syntax-unified -mbe32
  71              	@ -mlittle-endian -mpic-data-is-text-relative -msched-prolog -mthumb
  72              	@ -munaligned-access -mvectorize-with-neon-quad -mword-relocations
  73              	
  74              		.text
  75              	.Ltext0:
  76              		.cfi_sections	.debug_frame
  77              		.section	.rodata.update.str1.4,"aMS",%progbits,1
  78              		.align	2
  79              	.LC0:
  80 0000 474F574E 		.ascii	"GOWNO\000"
  80      4F00
  81 0006 0000     		.align	2
  82              	.LC1:
  83 0008 55595359 		.ascii	"UYSY CHUJ!\000"
  83      20434855 
  83      4A2100
  84              		.section	.text.update,"ax",%progbits
  85              		.align	1
  86              		.p2align 4,,15
  87              		.arch armv7e-m
  88              		.syntax unified
  89              		.thumb
  90              		.thumb_func
  91              		.fpu fpv5-sp-d16
  92              		.type	update, %function
  93              	update:
  94              	.LVL0:
  95              	.LFB16:
  96              		.file 1 "src/main.c"
   1:src/main.c    **** //
   2:src/main.c    **** //  main.c
   3:src/main.c    **** //  Extension
   4:src/main.c    **** //
   5:src/main.c    **** //  Created by Dave Hayden on 7/30/14.
   6:src/main.c    **** //  Copyright (c) 2014 Panic, Inc. All rights reserved.
   7:src/main.c    **** //
   8:src/main.c    **** 
   9:src/main.c    **** #include <stdio.h>
  10:src/main.c    **** #include <stdlib.h>
  11:src/main.c    **** 
  12:src/main.c    **** #include "pd_api.h"
  13:src/main.c    **** 
  14:src/main.c    **** static int update(void *userdata);
  15:src/main.c    **** const char *fontpath = "/System/Fonts/Asheville-Sans-14-Bold.pft";
ARM GAS  /var/folders/f_/cbwjhbrs2jjg59qn23y6nhvm0000gn/T//ccc3mDts.s 			page 3


  16:src/main.c    **** LCDFont *font = NULL;
  17:src/main.c    **** 
  18:src/main.c    **** #ifdef _WINDLL
  19:src/main.c    **** __declspec(dllexport)
  20:src/main.c    **** #endif
  21:src/main.c    ****     int eventHandler(PlaydateAPI *pd, PDSystemEvent event, uint32_t arg)
  22:src/main.c    **** {
  23:src/main.c    ****   (void)arg; // arg is currently only used for event = kEventKeyPressed
  24:src/main.c    **** 
  25:src/main.c    ****   if (event == kEventInit)
  26:src/main.c    ****   {
  27:src/main.c    ****     const char *err;
  28:src/main.c    ****     font = pd->graphics->loadFont(fontpath, &err);
  29:src/main.c    **** 
  30:src/main.c    ****     if (font == NULL)
  31:src/main.c    ****       pd->system->error("%s:%i Couldn't load font %s: %s", __FILE__, __LINE__,
  32:src/main.c    ****                         fontpath, err);
  33:src/main.c    **** 
  34:src/main.c    ****     // Note: If you set an update callback in the kEventInit handler, the system
  35:src/main.c    ****     // assumes the game is pure C and doesn't run any Lua code in the game
  36:src/main.c    ****     pd->system->setUpdateCallback(update, pd);
  37:src/main.c    ****   }
  38:src/main.c    **** 
  39:src/main.c    ****   return 0;
  40:src/main.c    **** }
  41:src/main.c    **** 
  42:src/main.c    **** #define TEXT_WIDTH 86
  43:src/main.c    **** #define TEXT_HEIGHT 16
  44:src/main.c    **** 
  45:src/main.c    **** int x = (400 - TEXT_WIDTH) / 2;
  46:src/main.c    **** int y = (240 - TEXT_HEIGHT) / 2;
  47:src/main.c    **** int dx = 1;
  48:src/main.c    **** int dy = 2;
  49:src/main.c    **** 
  50:src/main.c    **** int color = 0;
  51:src/main.c    **** 
  52:src/main.c    **** static int update(void *userdata)
  53:src/main.c    **** {
  97              		.loc 1 53 1 view -0
  98              		.cfi_startproc
  99              		@ args = 0, pretend = 0, frame = 0
 100              		@ frame_needed = 0, uses_anonymous_args = 0
  54:src/main.c    ****   PlaydateAPI *pd = userdata;
 101              		.loc 1 54 3 view .LVU1
 102              	@ src/main.c:53: {
  53:src/main.c    ****   PlaydateAPI *pd = userdata;
 103              		.loc 1 53 1 is_stmt 0 view .LVU2
 104 0000 2DE9F043 		push	{r4, r5, r6, r7, r8, r9, lr}	@
 105              	.LCFI0:
 106              		.cfi_def_cfa_offset 28
 107              		.cfi_offset 4, -28
 108              		.cfi_offset 5, -24
 109              		.cfi_offset 6, -20
 110              		.cfi_offset 7, -16
 111              		.cfi_offset 8, -12
 112              		.cfi_offset 9, -8
 113              		.cfi_offset 14, -4
ARM GAS  /var/folders/f_/cbwjhbrs2jjg59qn23y6nhvm0000gn/T//ccc3mDts.s 			page 4


 114 0004 0446     		mov	r4, r0	@ tmp201, userdata
 115 0006 83B0     		sub	sp, sp, #12	@,,
 116              	.LCFI1:
 117              		.cfi_def_cfa_offset 40
 118              	@ src/main.c:56:   pd->graphics->clear(kColorWhite);
  55:src/main.c    **** 
  56:src/main.c    ****   pd->graphics->clear(kColorWhite);
 119              		.loc 1 56 3 view .LVU3
 120 0008 0120     		movs	r0, #1	@,
 121              	.LVL1:
 122              	@ src/main.c:59:   pd->graphics->drawText("GOWNO", strlen("GOWNO"), kUTF8Encoding, 100, 0);
  57:src/main.c    ****   pd->graphics->setFont(font);
  58:src/main.c    **** 
  59:src/main.c    ****   pd->graphics->drawText("GOWNO", strlen("GOWNO"), kUTF8Encoding, 100, 0);
 123              		.loc 1 59 3 view .LVU4
 124 000a 4FF00008 		mov	r8, #0	@ tmp153,
 125              	@ src/main.c:56:   pd->graphics->clear(kColorWhite);
  56:src/main.c    ****   pd->graphics->setFont(font);
 126              		.loc 1 56 15 view .LVU5
 127 000e A368     		ldr	r3, [r4, #8]	@ MEM[(struct PlaydateAPI *)userdata_37(D)].graphics, MEM[(struct PlaydateAPI *)u
 128              	@ src/main.c:62:   pd->graphics->drawText(text, strlen(text), kUTF8Encoding, x, y);
  60:src/main.c    **** 
  61:src/main.c    ****   char *text = "UYSY CHUJ!";
  62:src/main.c    ****   pd->graphics->drawText(text, strlen(text), kUTF8Encoding, x, y);
 129              		.loc 1 62 3 view .LVU6
 130 0010 314E     		ldr	r6, .L8	@ tmp196,
 131              	.LVL2:
  56:src/main.c    ****   pd->graphics->setFont(font);
 132              		.loc 1 56 3 is_stmt 1 view .LVU7
 133 0012 5B68     		ldr	r3, [r3, #4]	@ _1->clear, _1->clear
 134 0014 9847     		blx	r3		@ _1->clear
 135              	.LVL3:
  57:src/main.c    **** 
 136              		.loc 1 57 3 view .LVU8
 137 0016 314A     		ldr	r2, .L8+4	@ tmp147,
 138              	@ src/main.c:57:   pd->graphics->setFont(font);
  57:src/main.c    **** 
 139              		.loc 1 57 15 is_stmt 0 view .LVU9
 140 0018 A368     		ldr	r3, [r4, #8]	@ MEM[(struct PlaydateAPI *)userdata_37(D)].graphics, MEM[(struct PlaydateAPI *)u
 141              	@ src/main.c:57:   pd->graphics->setFont(font);
  57:src/main.c    **** 
 142              		.loc 1 57 3 view .LVU10
 143 001a 1068     		ldr	r0, [r2]	@, font
 144 001c 5B6A     		ldr	r3, [r3, #36]	@ _3->setFont, _3->setFont
 145 001e 9847     		blx	r3		@ _3->setFont
 146              	.LVL4:
  59:src/main.c    **** 
 147              		.loc 1 59 3 is_stmt 1 view .LVU11
 148              	@ src/main.c:59:   pd->graphics->drawText("GOWNO", strlen("GOWNO"), kUTF8Encoding, 100, 0);
  59:src/main.c    **** 
 149              		.loc 1 59 15 is_stmt 0 view .LVU12
 150 0020 A268     		ldr	r2, [r4, #8]	@ MEM[(struct PlaydateAPI *)userdata_37(D)].graphics, MEM[(struct PlaydateAPI *)u
 151              	@ src/main.c:59:   pd->graphics->drawText("GOWNO", strlen("GOWNO"), kUTF8Encoding, 100, 0);
  59:src/main.c    **** 
 152              		.loc 1 59 3 view .LVU13
 153 0022 6423     		movs	r3, #100	@,
 154 0024 0521     		movs	r1, #5	@,
ARM GAS  /var/folders/f_/cbwjhbrs2jjg59qn23y6nhvm0000gn/T//ccc3mDts.s 			page 5


 155 0026 CDF80080 		str	r8, [sp]	@ tmp153,
 156 002a 2D48     		ldr	r0, .L8+8	@,
 157 002c D2F85890 		ldr	r9, [r2, #88]	@ _6->drawText, _6->drawText
 158 0030 0122     		movs	r2, #1	@,
 159 0032 C847     		blx	r9		@ _6->drawText
 160              	.LVL5:
  61:src/main.c    ****   pd->graphics->drawText(text, strlen(text), kUTF8Encoding, x, y);
 161              		.loc 1 61 3 is_stmt 1 view .LVU14
 162              		.loc 1 62 3 view .LVU15
 163 0034 2B4F     		ldr	r7, .L8+12	@ tmp195,
 164              	@ src/main.c:62:   pd->graphics->drawText(text, strlen(text), kUTF8Encoding, x, y);
 165              		.loc 1 62 15 is_stmt 0 view .LVU16
 166 0036 D4F808C0 		ldr	ip, [r4, #8]	@ MEM[(struct PlaydateAPI *)userdata_37(D)].graphics, MEM[(struct PlaydateAPI *)u
 167              	@ src/main.c:62:   pd->graphics->drawText(text, strlen(text), kUTF8Encoding, x, y);
 168              		.loc 1 62 3 view .LVU17
 169 003a 0122     		movs	r2, #1	@,
 170 003c 3068     		ldr	r0, [r6]	@ y, y
 171 003e 0A21     		movs	r1, #10	@,
 172              	@ src/main.c:63:   if ((color / 50) % 2 == 0)
  63:src/main.c    ****   if ((color / 50) % 2 == 0)
 173              		.loc 1 63 14 view .LVU18
 174 0040 294D     		ldr	r5, .L8+16	@ tmp197,
 175              	@ src/main.c:62:   pd->graphics->drawText(text, strlen(text), kUTF8Encoding, x, y);
  62:src/main.c    ****   if ((color / 50) % 2 == 0)
 176              		.loc 1 62 3 view .LVU19
 177 0042 0090     		str	r0, [sp]	@ y,
 178 0044 3B68     		ldr	r3, [r7]	@, x
 179 0046 2948     		ldr	r0, .L8+20	@,
 180 0048 DCF85890 		ldr	r9, [ip, #88]	@ _8->drawText, _8->drawText
 181 004c C847     		blx	r9		@ _8->drawText
 182              	.LVL6:
 183              		.loc 1 63 3 is_stmt 1 view .LVU20
 184              	@ src/main.c:63:   if ((color / 50) % 2 == 0)
 185              		.loc 1 63 14 is_stmt 0 view .LVU21
 186 004e 2B68     		ldr	r3, [r5]	@ color, color
 187 0050 274A     		ldr	r2, .L8+24	@ tmp166,
 188 0052 D917     		asrs	r1, r3, #31	@ tmp168, color,
 189 0054 82FB0323 		smull	r2, r3, r2, r3	@ tmp204, tmp165, tmp166, color
 190 0058 C1EB2311 		rsb	r1, r1, r3, asr #4	@ tmp163, tmp168, tmp165,
 191              	@ src/main.c:63:   if ((color / 50) % 2 == 0)
 192              		.loc 1 63 6 view .LVU22
 193 005c 11F00101 		ands	r1, r1, #1	@ tmp169, tmp163,
 194 0060 2ED1     		bne	.L2		@,
  64:src/main.c    ****   {
  65:src/main.c    ****     pd->graphics->fillRect(0, 0, LCD_COLUMNS, LCD_ROWS, kColorBlack);
 195              		.loc 1 65 5 is_stmt 1 view .LVU23
 196              	@ src/main.c:65:     pd->graphics->fillRect(0, 0, LCD_COLUMNS, LCD_ROWS, kColorBlack);
 197              		.loc 1 65 17 is_stmt 0 view .LVU24
 198 0062 A068     		ldr	r0, [r4, #8]	@ MEM[(struct PlaydateAPI *)userdata_37(D)].graphics, MEM[(struct PlaydateAPI *)u
 199              	@ src/main.c:65:     pd->graphics->fillRect(0, 0, LCD_COLUMNS, LCD_ROWS, kColorBlack);
 200              		.loc 1 65 5 view .LVU25
 201 0064 F023     		movs	r3, #240	@,
 202 0066 0091     		str	r1, [sp]	@ tmp169,
 203 0068 4FF4C872 		mov	r2, #400	@,
 204 006c D0F84880 		ldr	r8, [r0, #72]	@ _16->fillRect,
 205 0070 0846     		mov	r0, r1	@,
 206 0072 C047     		blx	r8		@ _16->fillRect
ARM GAS  /var/folders/f_/cbwjhbrs2jjg59qn23y6nhvm0000gn/T//ccc3mDts.s 			page 6


 207              	.LVL7:
 208              	.L3:
  66:src/main.c    ****   }
  67:src/main.c    ****   else
  68:src/main.c    ****   {
  69:src/main.c    ****     pd->graphics->fillRect(0, 0, LCD_COLUMNS, LCD_ROWS, kColorWhite);
  70:src/main.c    ****   }
  71:src/main.c    ****   color += 1;
 209              		.loc 1 71 3 is_stmt 1 view .LVU26
 210              	@ src/main.c:73:   x += dx;
  72:src/main.c    **** 
  73:src/main.c    ****   x += dx;
 211              		.loc 1 73 5 is_stmt 0 view .LVU27
 212 0074 DFF87C80 		ldr	r8, .L8+28	@ tmp180,
 213 0078 3A68     		ldr	r2, [r7]	@ x, x
 214              	@ src/main.c:74:   y += dy;
  74:src/main.c    ****   y += dy;
 215              		.loc 1 74 5 view .LVU28
 216 007a DFF87CE0 		ldr	lr, .L8+32	@ tmp198,
 217              	@ src/main.c:73:   x += dx;
  73:src/main.c    ****   y += dy;
 218              		.loc 1 73 5 view .LVU29
 219 007e D8F800C0 		ldr	ip, [r8]	@ dx.10_23, dx
 220              	@ src/main.c:74:   y += dy;
 221              		.loc 1 74 5 view .LVU30
 222 0082 3368     		ldr	r3, [r6]	@ y, y
 223              	@ src/main.c:73:   x += dx;
  73:src/main.c    ****   y += dy;
 224              		.loc 1 73 5 view .LVU31
 225 0084 6244     		add	r2, r2, ip	@ _24, dx.10_23
 226              	@ src/main.c:71:   color += 1;
  71:src/main.c    **** 
 227              		.loc 1 71 9 view .LVU32
 228 0086 2968     		ldr	r1, [r5]	@ color, color
 229              	@ src/main.c:74:   y += dy;
 230              		.loc 1 74 5 view .LVU33
 231 0088 DEF80000 		ldr	r0, [lr]	@ dy.12_26, dy
 232              	@ src/main.c:71:   color += 1;
  71:src/main.c    **** 
 233              		.loc 1 71 9 view .LVU34
 234 008c 0131     		adds	r1, r1, #1	@ tmp178, color,
 235              	@ src/main.c:76:   if (x < 0 || x > LCD_COLUMNS - TEXT_WIDTH)
  75:src/main.c    **** 
  76:src/main.c    ****   if (x < 0 || x > LCD_COLUMNS - TEXT_WIDTH)
 236              		.loc 1 76 6 view .LVU35
 237 008e B2F59D7F 		cmp	r2, #314	@ _24,
 238              	@ src/main.c:74:   y += dy;
  74:src/main.c    **** 
 239              		.loc 1 74 5 view .LVU36
 240 0092 0344     		add	r3, r3, r0	@ _27, dy.12_26
 241              	@ src/main.c:73:   x += dx;
  73:src/main.c    ****   y += dy;
 242              		.loc 1 73 5 view .LVU37
 243 0094 3A60     		str	r2, [r7]	@ _24, x
 244              	@ src/main.c:71:   color += 1;
  71:src/main.c    **** 
 245              		.loc 1 71 9 view .LVU38
ARM GAS  /var/folders/f_/cbwjhbrs2jjg59qn23y6nhvm0000gn/T//ccc3mDts.s 			page 7


 246 0096 2960     		str	r1, [r5]	@ tmp178, color
  73:src/main.c    ****   y += dy;
 247              		.loc 1 73 3 is_stmt 1 view .LVU39
  74:src/main.c    **** 
 248              		.loc 1 74 3 view .LVU40
 249              		.loc 1 76 3 view .LVU41
 250              	@ src/main.c:74:   y += dy;
  74:src/main.c    **** 
 251              		.loc 1 74 5 is_stmt 0 view .LVU42
 252 0098 3360     		str	r3, [r6]	@ _27, y
 253              	@ src/main.c:76:   if (x < 0 || x > LCD_COLUMNS - TEXT_WIDTH)
 254              		.loc 1 76 6 view .LVU43
 255 009a 03D9     		bls	.L4		@,
  77:src/main.c    ****     dx = -dx;
 256              		.loc 1 77 5 is_stmt 1 view .LVU44
 257              	@ src/main.c:77:     dx = -dx;
 258              		.loc 1 77 10 is_stmt 0 view .LVU45
 259 009c CCF10002 		rsb	r2, ip, #0	@ tmp189, dx.10_23
 260              	@ src/main.c:77:     dx = -dx;
 261              		.loc 1 77 8 view .LVU46
 262 00a0 C8F80020 		str	r2, [r8]	@ tmp189, dx
 263              	.L4:
  78:src/main.c    **** 
  79:src/main.c    ****   if (y < 0 || y > LCD_ROWS - TEXT_HEIGHT)
 264              		.loc 1 79 3 is_stmt 1 view .LVU47
 265              	@ src/main.c:79:   if (y < 0 || y > LCD_ROWS - TEXT_HEIGHT)
 266              		.loc 1 79 6 is_stmt 0 view .LVU48
 267 00a4 E02B     		cmp	r3, #224	@ _27,
 268 00a6 02D9     		bls	.L5		@,
  80:src/main.c    ****     dy = -dy;
 269              		.loc 1 80 5 is_stmt 1 view .LVU49
 270              	@ src/main.c:80:     dy = -dy;
 271              		.loc 1 80 10 is_stmt 0 view .LVU50
 272 00a8 4042     		rsbs	r0, r0, #0	@ tmp191, dy.12_26
 273              	@ src/main.c:80:     dy = -dy;
 274              		.loc 1 80 8 view .LVU51
 275 00aa CEF80000 		str	r0, [lr]	@ tmp191, dy
 276              	.L5:
  81:src/main.c    **** 
  82:src/main.c    ****   pd->system->drawFPS(0, 0);
 277              		.loc 1 82 3 is_stmt 1 view .LVU52
 278              	@ src/main.c:82:   pd->system->drawFPS(0, 0);
 279              		.loc 1 82 13 is_stmt 0 view .LVU53
 280 00ae 2368     		ldr	r3, [r4]	@ MEM[(struct PlaydateAPI *)userdata_37(D)].system, MEM[(struct PlaydateAPI *)userdat
 281              	@ src/main.c:82:   pd->system->drawFPS(0, 0);
 282              		.loc 1 82 3 view .LVU54
 283 00b0 0021     		movs	r1, #0	@,
 284 00b2 DB69     		ldr	r3, [r3, #28]	@ _32->drawFPS, _32->drawFPS
 285 00b4 0846     		mov	r0, r1	@,
 286 00b6 9847     		blx	r3		@ _32->drawFPS
 287              	.LVL8:
  83:src/main.c    **** 
  84:src/main.c    ****   return 1;
 288              		.loc 1 84 3 is_stmt 1 view .LVU55
 289              	@ src/main.c:85: }
  85:src/main.c    **** }
 290              		.loc 1 85 1 is_stmt 0 view .LVU56
ARM GAS  /var/folders/f_/cbwjhbrs2jjg59qn23y6nhvm0000gn/T//ccc3mDts.s 			page 8


 291 00b8 0120     		movs	r0, #1	@,
 292 00ba 03B0     		add	sp, sp, #12	@,,
 293              	.LCFI2:
 294              		.cfi_remember_state
 295              		.cfi_def_cfa_offset 28
 296              		@ sp needed	@
 297 00bc BDE8F083 		pop	{r4, r5, r6, r7, r8, r9, pc}	@
 298              	.LVL9:
 299              	.L2:
 300              	.LCFI3:
 301              		.cfi_restore_state
  69:src/main.c    ****   }
 302              		.loc 1 69 5 is_stmt 1 view .LVU57
 303 00c0 0121     		movs	r1, #1	@ tmp174,
 304              	@ src/main.c:69:     pd->graphics->fillRect(0, 0, LCD_COLUMNS, LCD_ROWS, kColorWhite);
  69:src/main.c    ****   }
 305              		.loc 1 69 17 is_stmt 0 view .LVU58
 306 00c2 A068     		ldr	r0, [r4, #8]	@ MEM[(struct PlaydateAPI *)userdata_37(D)].graphics, MEM[(struct PlaydateAPI *)u
 307              	@ src/main.c:69:     pd->graphics->fillRect(0, 0, LCD_COLUMNS, LCD_ROWS, kColorWhite);
  69:src/main.c    ****   }
 308              		.loc 1 69 5 view .LVU59
 309 00c4 F023     		movs	r3, #240	@,
 310 00c6 4FF4C872 		mov	r2, #400	@,
 311 00ca 0091     		str	r1, [sp]	@ tmp174,
 312 00cc 4146     		mov	r1, r8	@, tmp153
 313 00ce D0F84880 		ldr	r8, [r0, #72]	@ _18->fillRect,
 314 00d2 0846     		mov	r0, r1	@,
 315 00d4 C047     		blx	r8		@ _18->fillRect
 316              	.LVL10:
 317 00d6 CDE7     		b	.L3		@
 318              	.L9:
 319              		.align	2
 320              	.L8:
 321 00d8 00000000 		.word	.LANCHOR2
 322 00dc 00000000 		.word	.LANCHOR0
 323 00e0 00000000 		.word	.LC0
 324 00e4 00000000 		.word	.LANCHOR1
 325 00e8 00000000 		.word	.LANCHOR3
 326 00ec 08000000 		.word	.LC1
 327 00f0 1F85EB51 		.word	1374389535
 328 00f4 00000000 		.word	.LANCHOR4
 329 00f8 00000000 		.word	.LANCHOR5
 330              		.cfi_endproc
 331              	.LFE16:
 332              		.size	update, .-update
 333              		.section	.rodata.eventHandler.str1.4,"aMS",%progbits,1
 334              		.align	2
 335              	.LC2:
 336 0000 7372632F 		.ascii	"src/main.c\000"
 336      6D61696E 
 336      2E6300
 337 000b 00       		.align	2
 338              	.LC3:
 339 000c 25733A25 		.ascii	"%s:%i Couldn't load font %s: %s\000"
 339      6920436F 
 339      756C646E 
 339      2774206C 
ARM GAS  /var/folders/f_/cbwjhbrs2jjg59qn23y6nhvm0000gn/T//ccc3mDts.s 			page 9


 339      6F616420 
 340              		.section	.text.eventHandler,"ax",%progbits
 341              		.align	1
 342              		.p2align 4,,15
 343              		.global	eventHandler
 344              		.syntax unified
 345              		.thumb
 346              		.thumb_func
 347              		.fpu fpv5-sp-d16
 348              		.type	eventHandler, %function
 349              	eventHandler:
 350              	.LVL11:
 351              	.LFB15:
  22:src/main.c    ****   (void)arg; // arg is currently only used for event = kEventKeyPressed
 352              		.loc 1 22 1 is_stmt 1 view -0
 353              		.cfi_startproc
 354              		@ args = 0, pretend = 0, frame = 8
 355              		@ frame_needed = 0, uses_anonymous_args = 0
  23:src/main.c    **** 
 356              		.loc 1 23 3 view .LVU61
  25:src/main.c    ****   {
 357              		.loc 1 25 3 view .LVU62
 358              	@ src/main.c:25:   if (event == kEventInit)
  25:src/main.c    ****   {
 359              		.loc 1 25 6 is_stmt 0 view .LVU63
 360 0000 A1B9     		cbnz	r1, .L14	@ tmp142,
 361              	.LBB2:
  27:src/main.c    ****     font = pd->graphics->loadFont(fontpath, &err);
 362              		.loc 1 27 5 is_stmt 1 view .LVU64
  28:src/main.c    **** 
 363              		.loc 1 28 5 view .LVU65
 364              	@ src/main.c:28:     font = pd->graphics->loadFont(fontpath, &err);
  28:src/main.c    **** 
 365              		.loc 1 28 24 is_stmt 0 view .LVU66
 366 0002 8368     		ldr	r3, [r0, #8]	@ pd_15(D)->graphics, pd_15(D)->graphics
 367              	.LBE2:
 368              	@ src/main.c:22: {
  22:src/main.c    ****   (void)arg; // arg is currently only used for event = kEventKeyPressed
 369              		.loc 1 22 1 view .LVU67
 370 0004 30B5     		push	{r4, r5, lr}	@
 371              	.LCFI4:
 372              		.cfi_def_cfa_offset 12
 373              		.cfi_offset 4, -12
 374              		.cfi_offset 5, -8
 375              		.cfi_offset 14, -4
 376              	.LBB3:
 377              	@ src/main.c:28:     font = pd->graphics->loadFont(fontpath, &err);
  28:src/main.c    **** 
 378              		.loc 1 28 12 view .LVU68
 379 0006 0F4D     		ldr	r5, .L18	@ tmp125,
 380              	.LBE3:
 381              	@ src/main.c:22: {
  22:src/main.c    ****   (void)arg; // arg is currently only used for event = kEventKeyPressed
 382              		.loc 1 22 1 view .LVU69
 383 0008 85B0     		sub	sp, sp, #20	@,,
 384              	.LCFI5:
 385              		.cfi_def_cfa_offset 32
ARM GAS  /var/folders/f_/cbwjhbrs2jjg59qn23y6nhvm0000gn/T//ccc3mDts.s 			page 10


 386              	.LBB4:
 387              	@ src/main.c:28:     font = pd->graphics->loadFont(fontpath, &err);
  28:src/main.c    **** 
 388              		.loc 1 28 12 view .LVU70
 389 000a D3F89030 		ldr	r3, [r3, #144]	@ _1->loadFont, _1->loadFont
 390 000e 0446     		mov	r4, r0	@ pd, tmp141
 391 0010 03A9     		add	r1, sp, #12	@,,
 392              	.LVL12:
  28:src/main.c    **** 
 393              		.loc 1 28 12 view .LVU71
 394 0012 2868     		ldr	r0, [r5]	@, fontpath
 395              	.LVL13:
  28:src/main.c    **** 
 396              		.loc 1 28 12 view .LVU72
 397 0014 9847     		blx	r3		@ _1->loadFont
 398              	.LVL14:
 399              	@ src/main.c:28:     font = pd->graphics->loadFont(fontpath, &err);
  28:src/main.c    **** 
 400              		.loc 1 28 10 view .LVU73
 401 0016 0C4B     		ldr	r3, .L18+4	@ tmp129,
 402 0018 1860     		str	r0, [r3]	@ _4, font
  30:src/main.c    ****       pd->system->error("%s:%i Couldn't load font %s: %s", __FILE__, __LINE__,
 403              		.loc 1 30 5 is_stmt 1 view .LVU74
 404              	@ src/main.c:30:     if (font == NULL)
  30:src/main.c    ****       pd->system->error("%s:%i Couldn't load font %s: %s", __FILE__, __LINE__,
 405              		.loc 1 30 8 is_stmt 0 view .LVU75
 406 001a 48B1     		cbz	r0, .L17	@ _4,
 407              	.L12:
  36:src/main.c    ****   }
 408              		.loc 1 36 5 is_stmt 1 view .LVU76
 409              	@ src/main.c:36:     pd->system->setUpdateCallback(update, pd);
  36:src/main.c    ****   }
 410              		.loc 1 36 15 is_stmt 0 view .LVU77
 411 001c 2368     		ldr	r3, [r4]	@ pd_15(D)->system, pd_15(D)->system
 412              	@ src/main.c:36:     pd->system->setUpdateCallback(update, pd);
  36:src/main.c    ****   }
 413              		.loc 1 36 5 view .LVU78
 414 001e 2146     		mov	r1, r4	@, pd
 415 0020 0A48     		ldr	r0, .L18+8	@,
 416 0022 1B6A     		ldr	r3, [r3, #32]	@ _9->setUpdateCallback, _9->setUpdateCallback
 417 0024 9847     		blx	r3		@ _9->setUpdateCallback
 418              	.LVL15:
 419              	.LBE4:
  39:src/main.c    **** }
 420              		.loc 1 39 3 is_stmt 1 view .LVU79
 421              	@ src/main.c:40: }
  40:src/main.c    **** 
 422              		.loc 1 40 1 is_stmt 0 view .LVU80
 423 0026 0020     		movs	r0, #0	@,
 424 0028 05B0     		add	sp, sp, #20	@,,
 425              	.LCFI6:
 426              		.cfi_def_cfa_offset 12
 427              		@ sp needed	@
 428 002a 30BD     		pop	{r4, r5, pc}	@
 429              	.LVL16:
 430              	.L14:
 431              	.LCFI7:
ARM GAS  /var/folders/f_/cbwjhbrs2jjg59qn23y6nhvm0000gn/T//ccc3mDts.s 			page 11


 432              		.cfi_def_cfa_offset 0
 433              		.cfi_restore 4
 434              		.cfi_restore 5
 435              		.cfi_restore 14
  39:src/main.c    **** }
 436              		.loc 1 39 3 is_stmt 1 view .LVU81
 437              	@ src/main.c:40: }
  40:src/main.c    **** 
 438              		.loc 1 40 1 is_stmt 0 view .LVU82
 439 002c 0020     		movs	r0, #0	@,
 440              	.LVL17:
  40:src/main.c    **** 
 441              		.loc 1 40 1 view .LVU83
 442 002e 7047     		bx	lr	@
 443              	.LVL18:
 444              	.L17:
 445              	.LCFI8:
 446              		.cfi_def_cfa_offset 32
 447              		.cfi_offset 4, -12
 448              		.cfi_offset 5, -8
 449              		.cfi_offset 14, -4
 450              	.LBB5:
  31:src/main.c    ****                         fontpath, err);
 451              		.loc 1 31 7 is_stmt 1 view .LVU84
 452              	@ src/main.c:31:       pd->system->error("%s:%i Couldn't load font %s: %s", __FILE__, __LINE__,
  31:src/main.c    ****                         fontpath, err);
 453              		.loc 1 31 17 is_stmt 0 view .LVU85
 454 0030 2068     		ldr	r0, [r4]	@ pd_15(D)->system, pd_15(D)->system
 455              	@ src/main.c:31:       pd->system->error("%s:%i Couldn't load font %s: %s", __FILE__, __LINE__,
  31:src/main.c    ****                         fontpath, err);
 456              		.loc 1 31 7 view .LVU86
 457 0032 1F22     		movs	r2, #31	@,
 458 0034 0399     		ldr	r1, [sp, #12]	@ err, err
 459 0036 2B68     		ldr	r3, [r5]	@, fontpath
 460 0038 0091     		str	r1, [sp]	@ err,
 461 003a 0549     		ldr	r1, .L18+12	@,
 462 003c C568     		ldr	r5, [r0, #12]	@ _5->error, _5->error
 463 003e 0548     		ldr	r0, .L18+16	@,
 464 0040 A847     		blx	r5		@ _5->error
 465              	.LVL19:
 466 0042 EBE7     		b	.L12		@
 467              	.L19:
 468              		.align	2
 469              	.L18:
 470 0044 00000000 		.word	.LANCHOR6
 471 0048 00000000 		.word	.LANCHOR0
 472 004c 00000000 		.word	update
 473 0050 00000000 		.word	.LC2
 474 0054 0C000000 		.word	.LC3
 475              	.LBE5:
 476              		.cfi_endproc
 477              	.LFE15:
 478              		.size	eventHandler, .-eventHandler
 479              		.global	color
 480              		.global	dy
 481              		.global	dx
 482              		.global	y
ARM GAS  /var/folders/f_/cbwjhbrs2jjg59qn23y6nhvm0000gn/T//ccc3mDts.s 			page 12


 483              		.global	x
 484              		.global	font
 485              		.global	fontpath
 486              		.section	.rodata.str1.4,"aMS",%progbits,1
 487              		.align	2
 488              	.LC4:
 489 0000 2F537973 		.ascii	"/System/Fonts/Asheville-Sans-14-Bold.pft\000"
 489      74656D2F 
 489      466F6E74 
 489      732F4173 
 489      68657669 
 490              		.section	.bss.color,"aw",%nobits
 491              		.align	2
 492              		.set	.LANCHOR3,. + 0
 493              		.type	color, %object
 494              		.size	color, 4
 495              	color:
 496 0000 00000000 		.space	4
 497              		.section	.bss.font,"aw",%nobits
 498              		.align	2
 499              		.set	.LANCHOR0,. + 0
 500              		.type	font, %object
 501              		.size	font, 4
 502              	font:
 503 0000 00000000 		.space	4
 504              		.section	.data.dx,"aw"
 505              		.align	2
 506              		.set	.LANCHOR4,. + 0
 507              		.type	dx, %object
 508              		.size	dx, 4
 509              	dx:
 510 0000 01000000 		.word	1
 511              		.section	.data.dy,"aw"
 512              		.align	2
 513              		.set	.LANCHOR5,. + 0
 514              		.type	dy, %object
 515              		.size	dy, 4
 516              	dy:
 517 0000 02000000 		.word	2
 518              		.section	.data.fontpath,"aw"
 519              		.align	2
 520              		.set	.LANCHOR6,. + 0
 521              		.type	fontpath, %object
 522              		.size	fontpath, 4
 523              	fontpath:
 524 0000 00000000 		.word	.LC4
 525              		.section	.data.x,"aw"
 526              		.align	2
 527              		.set	.LANCHOR1,. + 0
 528              		.type	x, %object
 529              		.size	x, 4
 530              	x:
 531 0000 9D000000 		.word	157
 532              		.section	.data.y,"aw"
 533              		.align	2
 534              		.set	.LANCHOR2,. + 0
 535              		.type	y, %object
ARM GAS  /var/folders/f_/cbwjhbrs2jjg59qn23y6nhvm0000gn/T//ccc3mDts.s 			page 13


 536              		.size	y, 4
 537              	y:
 538 0000 70000000 		.word	112
 539              		.text
 540              	.Letext0:
 541              		.file 2 "/usr/local/playdate/gcc-arm-none-eabi-9-2019-q4-major/arm-none-eabi/include/machine/_defa
 542              		.file 3 "/usr/local/playdate/gcc-arm-none-eabi-9-2019-q4-major/lib/gcc/arm-none-eabi/9.2.1/include
 543              		.file 4 "/usr/local/playdate/gcc-arm-none-eabi-9-2019-q4-major/arm-none-eabi/include/sys/lock.h"
 544              		.file 5 "/usr/local/playdate/gcc-arm-none-eabi-9-2019-q4-major/arm-none-eabi/include/sys/_types.h"
 545              		.file 6 "/usr/local/playdate/gcc-arm-none-eabi-9-2019-q4-major/arm-none-eabi/include/sys/reent.h"
 546              		.file 7 "/usr/local/playdate/gcc-arm-none-eabi-9-2019-q4-major/arm-none-eabi/include/sys/_stdint.h
 547              		.file 8 "/usr/local/playdate/gcc-arm-none-eabi-9-2019-q4-major/arm-none-eabi/include/stdlib.h"
 548              		.file 9 "/Users/kubukoz/Developer/PlaydateSDK/C_API/pd_api/pd_api_gfx.h"
 549              		.file 10 "/Users/kubukoz/Developer/PlaydateSDK/C_API/pd_api/pd_api_sys.h"
 550              		.file 11 "/Users/kubukoz/Developer/PlaydateSDK/C_API/pd_api/pd_api_lua.h"
 551              		.file 12 "/Users/kubukoz/Developer/PlaydateSDK/C_API/pd_api/pd_api_json.h"
 552              		.file 13 "/Users/kubukoz/Developer/PlaydateSDK/C_API/pd_api/pd_api_file.h"
 553              		.file 14 "/Users/kubukoz/Developer/PlaydateSDK/C_API/pd_api/pd_api_sprite.h"
 554              		.file 15 "/Users/kubukoz/Developer/PlaydateSDK/C_API/pd_api/pd_api_sound.h"
 555              		.file 16 "/usr/local/playdate/gcc-arm-none-eabi-9-2019-q4-major/arm-none-eabi/include/math.h"
 556              		.file 17 "/Users/kubukoz/Developer/PlaydateSDK/C_API/pd_api/pd_api_display.h"
 557              		.file 18 "/Users/kubukoz/Developer/PlaydateSDK/C_API/pd_api/pd_api_scoreboards.h"
 558              		.file 19 "/Users/kubukoz/Developer/PlaydateSDK/C_API/pd_api.h"